target datalayout = "e-m:e-p270:32:32-p271:32:32-p272:64:64-i64:64-i128:128-f80:128-n8:16:32:64-S128"
target triple = "x86_64-pc-linux-gnu"

%"class.Eigen::Stride" = type { [2 x i8] }
%"class.g2o::BaseVertex" = type { %"class.g2o::OptimizableGraph::Vertex", %"class.Eigen::Map", %"class.Eigen::Matrix", %"class.g2o::SBACam", %"class.std::stack", [8 x i8] }
%"class.g2o::OptimizableGraph::Vertex" = type { %"class.g2o::HyperGraph::Vertex", %"class.g2o::HyperGraph::DataContainer", ptr, ptr, i32, i8, i8, i32, i32, [8 x i8], ptr }
%"class.g2o::HyperGraph::Vertex" = type { %"struct.g2o::HyperGraph::HyperGraphElement", i32, %"class.std::set" }
%"struct.g2o::HyperGraph::HyperGraphElement" = type { ptr }
%"class.std::set" = type { %"class.std::_Rb_tree" }
%"class.std::_Rb_tree" = type { %"struct.std::_Rb_tree<g2o::HyperGraph::Edge *, g2o::HyperGraph::Edge *, std::_Identity<g2o::HyperGraph::Edge *>, std::less<g2o::HyperGraph::Edge *>>::_Rb_tree_impl" }
%"struct.std::_Rb_tree<g2o::HyperGraph::Edge *, g2o::HyperGraph::Edge *, std::_Identity<g2o::HyperGraph::Edge *>, std::less<g2o::HyperGraph::Edge *>>::_Rb_tree_impl" = type { [8 x i8], %"struct.std::_Rb_tree_header" }
%"struct.std::_Rb_tree_header" = type { %"struct.std::_Rb_tree_node_base", i64 }
%"struct.std::_Rb_tree_node_base" = type { i32, ptr, ptr, ptr }
%"class.g2o::HyperGraph::DataContainer" = type { ptr, ptr }
%"class.Eigen::Map" = type { %"class.Eigen::MapBase.base.4", [6 x i8] }
%"class.Eigen::MapBase.base.4" = type { %"class.Eigen::MapBase.base" }
%"class.Eigen::MapBase.base" = type <{ ptr, [2 x i8] }>
%"class.Eigen::Matrix" = type { %"class.Eigen::PlainObjectBase" }
%"class.Eigen::PlainObjectBase" = type { %"class.Eigen::DenseStorage" }
%"class.Eigen::DenseStorage" = type { %"struct.Eigen::internal::plain_array" }
%"struct.Eigen::internal::plain_array" = type { [6 x double] }
%"class.g2o::SBACam" = type { %"class.g2o::SE3Quat.base", %"class.Eigen::Matrix.31", double, [8 x i8], %"class.Eigen::Matrix.41", %"class.Eigen::Matrix.41", %"class.Eigen::Matrix.31", %"class.Eigen::Matrix.31", %"class.Eigen::Matrix.31", [8 x i8] }
%"class.g2o::SE3Quat.base" = type { %"class.Eigen::Quaternion", %"class.Eigen::Matrix.21" }
%"class.Eigen::Quaternion" = type { %"class.Eigen::Matrix.11" }
%"class.Eigen::Matrix.11" = type { %"class.Eigen::PlainObjectBase.12" }
%"class.Eigen::PlainObjectBase.12" = type { %"class.Eigen::DenseStorage.19" }
%"class.Eigen::DenseStorage.19" = type { %"struct.Eigen::internal::plain_array.20" }
%"struct.Eigen::internal::plain_array.20" = type { [4 x double] }
%"class.Eigen::Matrix.21" = type { %"class.Eigen::PlainObjectBase.22" }
%"class.Eigen::PlainObjectBase.22" = type { %"class.Eigen::DenseStorage.29" }
%"class.Eigen::DenseStorage.29" = type { %"struct.Eigen::internal::plain_array.30" }
%"struct.Eigen::internal::plain_array.30" = type { [3 x double] }
%"class.Eigen::Matrix.41" = type { %"class.Eigen::PlainObjectBase.42" }
%"class.Eigen::PlainObjectBase.42" = type { %"class.Eigen::DenseStorage.49" }
%"class.Eigen::DenseStorage.49" = type { %"struct.Eigen::internal::plain_array.50" }
%"struct.Eigen::internal::plain_array.50" = type { [12 x double] }
%"class.Eigen::Matrix.31" = type { %"class.Eigen::PlainObjectBase.32" }
%"class.Eigen::PlainObjectBase.32" = type { %"class.Eigen::DenseStorage.39" }
%"class.Eigen::DenseStorage.39" = type { %"struct.Eigen::internal::plain_array.40" }
%"struct.Eigen::internal::plain_array.40" = type { [9 x double] }
%"class.std::stack" = type { %"class.std::vector" }
%"class.std::vector" = type { %"struct.std::_Vector_base" }
%"struct.std::_Vector_base" = type { %"struct.std::_Vector_base<g2o::SBACam, std::allocator<g2o::SBACam>>::_Vector_impl" }
%"struct.std::_Vector_base<g2o::SBACam, std::allocator<g2o::SBACam>>::_Vector_impl" = type { %"struct.std::_Vector_base<g2o::SBACam, std::allocator<g2o::SBACam>>::_Vector_impl_data" }
%"struct.std::_Vector_base<g2o::SBACam, std::allocator<g2o::SBACam>>::_Vector_impl_data" = type { ptr, ptr, ptr }
%"class.Eigen::MapBase.1" = type <{ ptr, [8 x i8] }>

; Function Attrs: mustprogress nounwind uwtable
define linkonce_odr void @_ZNSt15__new_allocatorIN3g2o6SBACamEEC2Ev(ptr noundef nonnull align 1 dereferenceable(1) %0) unnamed_addr #1 comdat align 2 {
  %2 = alloca ptr, align 8
  store ptr %0, ptr %2, align 8, !tbaa !125
  ret void
}

; Function Attrs: mustprogress nounwind uwtable
define linkonce_odr void @_ZNSt12_Vector_baseIN3g2o6SBACamESaIS1_EE17_Vector_impl_dataC2Ev(ptr noundef nonnull align 8 dereferenceable(24) %0) unnamed_addr #1 comdat align 2 {
  %2 = alloca ptr, align 8
  store ptr %0, ptr %2, align 8, !tbaa !674
  %3 = load ptr, ptr %2, align 8
  %4 = getelementptr inbounds nuw %"struct.std::_Vector_base<g2o::SBACam, std::allocator<g2o::SBACam>>::_Vector_impl_data", ptr %3, i32 0, i32 0
  store ptr null, ptr %4, align 8, !tbaa !117
  %5 = getelementptr inbounds nuw %"struct.std::_Vector_base<g2o::SBACam, std::allocator<g2o::SBACam>>::_Vector_impl_data", ptr %3, i32 0, i32 1
  store ptr null, ptr %5, align 8, !tbaa !119
  %6 = getelementptr inbounds nuw %"struct.std::_Vector_base<g2o::SBACam, std::allocator<g2o::SBACam>>::_Vector_impl_data", ptr %3, i32 0, i32 2
  store ptr null, ptr %6, align 8, !tbaa !124
  ret void
}

; Function Attrs: mustprogress nounwind uwtable
define linkonce_odr void @_ZNSaIN3g2o6SBACamEEC2Ev(ptr noundef nonnull align 1 dereferenceable(1) %0) unnamed_addr #1 comdat align 2 {
  %2 = alloca ptr, align 8
  store ptr %0, ptr %2, align 8, !tbaa !120
  %3 = load ptr, ptr %2, align 8
  call void @_ZNSt15__new_allocatorIN3g2o6SBACamEEC2Ev(ptr noundef nonnull align 1 dereferenceable(1) %3) #6
  ret void
}

; Function Attrs: mustprogress nounwind uwtable
define linkonce_odr void @_ZN5Eigen8internal28check_static_allocation_sizeIdLi6EEEvv() #1 comdat {
  ret void
}

; Function Attrs: mustprogress nounwind uwtable
define linkonce_odr void @_ZN5Eigen9DenseBaseINS_3MapINS_6MatrixIdLi6ELi6ELi0ELi6ELi6EEELi0ENS_6StrideILi0ELi0EEEEEEC2Ev(ptr noundef nonnull align 1 dereferenceable(1) %0) unnamed_addr #1 comdat align 2 {
  %2 = alloca ptr, align 8
  store ptr %0, ptr %2, align 8, !tbaa !670
  ret void
}

; Function Attrs: mustprogress nounwind uwtable
define linkonce_odr void @_ZNSt12_Vector_baseIN3g2o6SBACamESaIS1_EE12_Vector_implC2Ev(ptr noundef nonnull align 8 dereferenceable(24) %0) unnamed_addr #1 comdat align 2 {
  %2 = alloca ptr, align 8
  store ptr %0, ptr %2, align 8, !tbaa !672
  %3 = load ptr, ptr %2, align 8
  call void @_ZNSaIN3g2o6SBACamEEC2Ev(ptr noundef nonnull align 1 dereferenceable(1) %3) #6
  call void @_ZNSt12_Vector_baseIN3g2o6SBACamESaIS1_EE17_Vector_impl_dataC2Ev(ptr noundef nonnull align 8 dereferenceable(24) %3) #6
  ret void
}

; Function Attrs: mustprogress uwtable
define linkonce_odr void @_ZN5Eigen8internal11plain_arrayIdLi6ELi0ELi16EEC2Ev(ptr noundef nonnull align 16 dereferenceable(48) %0) unnamed_addr #3 comdat align 2 {
  %2 = alloca ptr, align 8
  store ptr %0, ptr %2, align 8, !tbaa !262
  call void @_ZN5Eigen8internal28check_static_allocation_sizeIdLi6EEEvv()
  ret void
}

; Function Attrs: mustprogress nounwind uwtable
define linkonce_odr void @_ZN5Eigen9DenseBaseINS_6MatrixIdLi6ELi1ELi0ELi6ELi1EEEEC2Ev(ptr noundef nonnull align 1 dereferenceable(1) %0) unnamed_addr #1 comdat align 2 {
  %2 = alloca ptr, align 8
  store ptr %0, ptr %2, align 8, !tbaa !237
  ret void
}

; Function Attrs: inlinehint mustprogress nounwind uwtable
define linkonce_odr noundef i64 @_ZN5Eigen8internal19variable_if_dynamicIlLi0EE5valueEv() #8 comdat align 2 {
  ret i64 0
}

; Function Attrs: mustprogress nounwind uwtable
define linkonce_odr void @_ZNK5Eigen7MapBaseINS_3MapINS_6MatrixIdLi6ELi6ELi0ELi6ELi6EEELi0ENS_6StrideILi0ELi0EEEEELi0EE11checkSanityIS6_EEvNS_8internal9enable_ifIXeqsr8internal6traitsIT_EE9AlignmentLi0EEPvE4typeE(ptr noundef nonnull align 8 dereferenceable(10) %0, ptr noundef %1) #1 comdat align 2 {
  %3 = alloca ptr, align 8
  %4 = alloca ptr, align 8
  store ptr %0, ptr %3, align 8, !tbaa !664
  store ptr %1, ptr %4, align 8, !tbaa !151
  ret void
}

; Function Attrs: inlinehint mustprogress nounwind uwtable
define linkonce_odr void @_ZN5Eigen8internal19variable_if_dynamicIlLi6EEC2El(ptr noundef nonnull align 1 dereferenceable(1) %0, i64 noundef %1) unnamed_addr #8 comdat align 2 {
  %3 = alloca ptr, align 8
  %4 = alloca i64, align 8
  store ptr %0, ptr %3, align 8, !tbaa !248
  store i64 %1, ptr %4, align 8, !tbaa !97
  call void @_ZN5Eigen8internal22ignore_unused_variableIlEEvRKT_(ptr noundef nonnull align 8 dereferenceable(8) %4)
  ret void
}

; Function Attrs: mustprogress uwtable
define linkonce_odr void @_ZN5Eigen10MatrixBaseINS_3MapINS_6MatrixIdLi6ELi6ELi0ELi6ELi6EEELi0ENS_6StrideILi0ELi0EEEEEEC2Ev(ptr noundef nonnull align 1 dereferenceable(1) %0) unnamed_addr #3 comdat align 2 {
  %2 = alloca ptr, align 8
  store ptr %0, ptr %2, align 8, !tbaa !668
  %3 = load ptr, ptr %2, align 8
  call void @_ZN5Eigen9DenseBaseINS_3MapINS_6MatrixIdLi6ELi6ELi0ELi6ELi6EEELi0ENS_6StrideILi0ELi0EEEEEEC2Ev(ptr noundef nonnull align 1 dereferenceable(1) %3)
  ret void
}

; Function Attrs: mustprogress nounwind uwtable
define linkonce_odr void @_ZNSt12_Vector_baseIN3g2o6SBACamESaIS1_EEC2Ev(ptr noundef nonnull align 8 dereferenceable(24) %0) unnamed_addr #1 comdat align 2 {
  %2 = alloca ptr, align 8
  store ptr %0, ptr %2, align 8, !tbaa !122
  %3 = load ptr, ptr %2, align 8
  %4 = getelementptr inbounds nuw %"struct.std::_Vector_base", ptr %3, i32 0, i32 0
  call void @_ZNSt12_Vector_baseIN3g2o6SBACamESaIS1_EE12_Vector_implC2Ev(ptr noundef nonnull align 8 dereferenceable(24) %4) #6
  ret void
}

; Function Attrs: mustprogress uwtable
define linkonce_odr void @_ZN5Eigen12DenseStorageIdLi6ELi6ELi1ELi0EEC2Ev(ptr noundef nonnull align 16 dereferenceable(48) %0) unnamed_addr #3 comdat align 2 {
  %2 = alloca ptr, align 8
  store ptr %0, ptr %2, align 8, !tbaa !260
  %3 = load ptr, ptr %2, align 8
  %4 = getelementptr inbounds nuw %"class.Eigen::DenseStorage", ptr %3, i32 0, i32 0
  call void @_ZN5Eigen8internal11plain_arrayIdLi6ELi0ELi16EEC2Ev(ptr noundef nonnull align 16 dereferenceable(48) %4)
  ret void
}

; Function Attrs: mustprogress uwtable
define linkonce_odr void @_ZN5Eigen10MatrixBaseINS_6MatrixIdLi6ELi1ELi0ELi6ELi1EEEEC2Ev(ptr noundef nonnull align 1 dereferenceable(1) %0) unnamed_addr #3 comdat align 2 {
  %2 = alloca ptr, align 8
  store ptr %0, ptr %2, align 8, !tbaa !258
  %3 = load ptr, ptr %2, align 8
  call void @_ZN5Eigen9DenseBaseINS_6MatrixIdLi6ELi1ELi0ELi6ELi1EEEEC2Ev(ptr noundef nonnull align 1 dereferenceable(1) %3)
  ret void
}

; Function Attrs: inlinehint mustprogress nounwind uwtable
define linkonce_odr noundef i64 @_ZNK5Eigen6StrideILi0ELi0EE5innerEv(ptr noundef nonnull align 1 dereferenceable(2) %0) #8 comdat align 2 {
  %2 = alloca ptr, align 8
  store ptr %0, ptr %2, align 8, !tbaa !127
  %3 = call noundef i64 @_ZN5Eigen8internal19variable_if_dynamicIlLi0EE5valueEv()
  ret i64 %3
}

; Function Attrs: inlinehint mustprogress uwtable
define linkonce_odr noundef i64 @_ZNK5Eigen6StrideILi0ELi0EE5outerEv(ptr noundef nonnull align 1 dereferenceable(2) %0) #7 comdat align 2 {
  %2 = alloca ptr, align 8
  store ptr %0, ptr %2, align 8, !tbaa !127
  %3 = call noundef i64 @_ZN5Eigen8internal19variable_if_dynamicIlLi0EE5valueEv()
  ret i64 %3
}

; Function Attrs: inlinehint mustprogress uwtable
define linkonce_odr void @_ZN5Eigen7MapBaseINS_3MapINS_6MatrixIdLi6ELi6ELi0ELi6ELi6EEELi0ENS_6StrideILi0ELi0EEEEELi0EEC2EPdll(ptr noundef nonnull align 8 dereferenceable(10) %0, ptr noundef %1, i64 noundef %2, i64 noundef %3) unnamed_addr #7 comdat align 2 {
  %5 = alloca ptr, align 8
  %6 = alloca ptr, align 8
  %7 = alloca i64, align 8
  %8 = alloca i64, align 8
  store ptr %0, ptr %5, align 8, !tbaa !664
  store ptr %1, ptr %6, align 8, !tbaa !59
  store i64 %2, ptr %7, align 8, !tbaa !97
  store i64 %3, ptr %8, align 8, !tbaa !97
  %9 = load ptr, ptr %5, align 8
  call void @_ZN5Eigen10MatrixBaseINS_3MapINS_6MatrixIdLi6ELi6ELi0ELi6ELi6EEELi0ENS_6StrideILi0ELi0EEEEEEC2Ev(ptr noundef nonnull align 1 dereferenceable(1) %9)
  %10 = getelementptr inbounds nuw %"class.Eigen::MapBase.1", ptr %9, i32 0, i32 0
  %11 = load ptr, ptr %6, align 8, !tbaa !59
  store ptr %11, ptr %10, align 8, !tbaa !666
  %12 = getelementptr inbounds i8, ptr %9, i64 8
  %13 = load i64, ptr %7, align 8, !tbaa !97
  call void @_ZN5Eigen8internal19variable_if_dynamicIlLi6EEC2El(ptr noundef nonnull align 1 dereferenceable(1) %12, i64 noundef %13)
  %14 = getelementptr inbounds i8, ptr %9, i64 9
  %15 = load i64, ptr %8, align 8, !tbaa !97
  call void @_ZN5Eigen8internal19variable_if_dynamicIlLi6EEC2El(ptr noundef nonnull align 1 dereferenceable(1) %14, i64 noundef %15)
  call void @_ZNK5Eigen7MapBaseINS_3MapINS_6MatrixIdLi6ELi6ELi0ELi6ELi6EEELi0ENS_6StrideILi0ELi0EEEEELi0EE11checkSanityIS6_EEvNS_8internal9enable_ifIXeqsr8internal6traitsIT_EE9AlignmentLi0EEPvE4typeE(ptr noundef nonnull align 8 dereferenceable(10) %9, ptr noundef null)
  ret void
}

; Function Attrs: inlinehint mustprogress nounwind uwtable
define linkonce_odr void @_ZN5Eigen8internal22ignore_unused_variableIlEEvRKT_(ptr noundef nonnull align 8 dereferenceable(8) %0) #8 comdat {
  %2 = alloca ptr, align 8
  store ptr %0, ptr %2, align 8, !tbaa !135
  ret void
}

; Function Attrs: mustprogress nounwind uwtable
define linkonce_odr void @_ZNSt6vectorIN3g2o6SBACamESaIS1_EEC2Ev(ptr noundef nonnull align 8 dereferenceable(24) %0) unnamed_addr #1 comdat align 2 {
  %2 = alloca ptr, align 8
  store ptr %0, ptr %2, align 8, !tbaa !115
  %3 = load ptr, ptr %2, align 8
  call void @_ZNSt12_Vector_baseIN3g2o6SBACamESaIS1_EEC2Ev(ptr noundef nonnull align 8 dereferenceable(24) %3) #6
  ret void
}

; Function Attrs: inlinehint mustprogress nounwind uwtable
define linkonce_odr void @_ZN5Eigen15PlainObjectBaseINS_6MatrixIdLi6ELi1ELi0ELi6ELi1EEEE22_check_template_paramsEv() #8 comdat align 2 {
  ret void
}

; Function Attrs: inlinehint mustprogress uwtable
define linkonce_odr void @_ZN5Eigen15PlainObjectBaseINS_6MatrixIdLi6ELi1ELi0ELi6ELi1EEEEC2Ev(ptr noundef nonnull align 16 dereferenceable(48) %0) unnamed_addr #7 comdat align 2 {
  %2 = alloca ptr, align 8
  store ptr %0, ptr %2, align 8, !tbaa !256
  %3 = load ptr, ptr %2, align 8
  call void @_ZN5Eigen10MatrixBaseINS_6MatrixIdLi6ELi1ELi0ELi6ELi1EEEEC2Ev(ptr noundef nonnull align 1 dereferenceable(1) %3)
  %4 = getelementptr inbounds nuw %"class.Eigen::PlainObjectBase", ptr %3, i32 0, i32 0
  call void @_ZN5Eigen12DenseStorageIdLi6ELi6ELi1ELi0EEC2Ev(ptr noundef nonnull align 16 dereferenceable(48) %4)
  ret void
}

; Function Attrs: inlinehint mustprogress nounwind uwtable
define linkonce_odr void @_ZN5Eigen15PlainObjectBaseINS_6MatrixIdLi6ELi6ELi0ELi6ELi6EEEE22_check_template_paramsEv() #8 comdat align 2 {
  ret void
}

; Function Attrs: mustprogress uwtable
define linkonce_odr void @_ZN5Eigen6StrideILi0ELi0EEC2ERKS1_(ptr noundef nonnull align 1 dereferenceable(2) %0, ptr noundef nonnull align 1 dereferenceable(2) %1) unnamed_addr #3 comdat align 2 {
  %3 = alloca ptr, align 8
  %4 = alloca ptr, align 8
  store ptr %0, ptr %3, align 8, !tbaa !127
  store ptr %1, ptr %4, align 8, !tbaa !127
  %5 = load ptr, ptr %3, align 8
  %6 = load ptr, ptr %4, align 8, !tbaa !127
  %7 = call noundef i64 @_ZNK5Eigen6StrideILi0ELi0EE5outerEv(ptr noundef nonnull align 1 dereferenceable(2) %6)
  call void @_ZN5Eigen8internal19variable_if_dynamicIlLi0EEC2El(ptr noundef nonnull align 1 dereferenceable(1) %5, i64 noundef %7)
  %8 = getelementptr inbounds i8, ptr %5, i64 1
  %9 = load ptr, ptr %4, align 8, !tbaa !127
  %10 = call noundef i64 @_ZNK5Eigen6StrideILi0ELi0EE5innerEv(ptr noundef nonnull align 1 dereferenceable(2) %9)
  call void @_ZN5Eigen8internal19variable_if_dynamicIlLi0EEC2El(ptr noundef nonnull align 1 dereferenceable(1) %8, i64 noundef %10)
  ret void
}

; Function Attrs: inlinehint mustprogress uwtable
define linkonce_odr void @_ZN5Eigen7MapBaseINS_3MapINS_6MatrixIdLi6ELi6ELi0ELi6ELi6EEELi0ENS_6StrideILi0ELi0EEEEELi1EEC2EPdll(ptr noundef nonnull align 8 dereferenceable(10) %0, ptr noundef %1, i64 noundef %2, i64 noundef %3) unnamed_addr #7 comdat align 2 {
  %5 = alloca ptr, align 8
  %6 = alloca ptr, align 8
  %7 = alloca i64, align 8
  %8 = alloca i64, align 8
  store ptr %0, ptr %5, align 8, !tbaa !662
  store ptr %1, ptr %6, align 8, !tbaa !59
  store i64 %2, ptr %7, align 8, !tbaa !97
  store i64 %3, ptr %8, align 8, !tbaa !97
  %9 = load ptr, ptr %5, align 8
  %10 = load ptr, ptr %6, align 8, !tbaa !59
  %11 = load i64, ptr %7, align 8, !tbaa !97
  %12 = load i64, ptr %8, align 8, !tbaa !97
  call void @_ZN5Eigen7MapBaseINS_3MapINS_6MatrixIdLi6ELi6ELi0ELi6ELi6EEELi0ENS_6StrideILi0ELi0EEEEELi0EEC2EPdll(ptr noundef nonnull align 8 dereferenceable(10) %9, ptr noundef %10, i64 noundef %11, i64 noundef %12)
  ret void
}

; Function Attrs: inlinehint mustprogress nounwind uwtable
define linkonce_odr noundef ptr @_ZN5Eigen3MapINS_6MatrixIdLi6ELi6ELi0ELi6ELi6EEELi0ENS_6StrideILi0ELi0EEEE20cast_to_pointer_typeEPd(ptr noundef nonnull align 8 dereferenceable(12) %0, ptr noundef %1) #8 comdat align 2 {
  %3 = alloca ptr, align 8
  %4 = alloca ptr, align 8
  store ptr %0, ptr %3, align 8, !tbaa !660
  store ptr %1, ptr %4, align 8, !tbaa !59
  %5 = load ptr, ptr %4, align 8, !tbaa !59
  ret ptr %5
}

; Function Attrs: inlinehint mustprogress uwtable
define linkonce_odr void @_ZN5Eigen8internal19variable_if_dynamicIlLi0EEC2El(ptr noundef nonnull align 1 dereferenceable(1) %0, i64 noundef %1) unnamed_addr #7 comdat align 2 {
  %3 = alloca ptr, align 8
  %4 = alloca i64, align 8
  store ptr %0, ptr %3, align 8, !tbaa !133
  store i64 %1, ptr %4, align 8, !tbaa !97
  call void @_ZN5Eigen8internal22ignore_unused_variableIlEEvRKT_(ptr noundef nonnull align 8 dereferenceable(8) %4)
  ret void
}

; Function Attrs: mustprogress nounwind uwtable
define linkonce_odr void @_ZNSt5stackIN3g2o6SBACamESt6vectorIS1_SaIS1_EEEC2IS4_vEEv(ptr noundef nonnull align 8 dereferenceable(24) %0) unnamed_addr #1 comdat align 2 {
  %2 = alloca ptr, align 8
  store ptr %0, ptr %2, align 8, !tbaa !113
  %3 = load ptr, ptr %2, align 8
  %4 = getelementptr inbounds nuw %"class.std::stack", ptr %3, i32 0, i32 0
  call void @llvm.memset.p0.i64(ptr align 8 %4, i8 0, i64 24, i1 false)
  call void @_ZNSt6vectorIN3g2o6SBACamESaIS1_EEC2Ev(ptr noundef nonnull align 8 dereferenceable(24) %4) #6
  ret void
}

; Function Attrs: inlinehint mustprogress uwtable
define linkonce_odr void @_ZN5Eigen6MatrixIdLi6ELi1ELi0ELi6ELi1EEC2Ev(ptr noundef nonnull align 16 dereferenceable(48) %0) unnamed_addr #7 comdat align 2 {
  %2 = alloca ptr, align 8
  store ptr %0, ptr %2, align 8, !tbaa !252
  %3 = load ptr, ptr %2, align 8
  call void @_ZN5Eigen15PlainObjectBaseINS_6MatrixIdLi6ELi1ELi0ELi6ELi1EEEEC2Ev(ptr noundef nonnull align 16 dereferenceable(48) %3)
  call void @_ZN5Eigen15PlainObjectBaseINS_6MatrixIdLi6ELi1ELi0ELi6ELi1EEEE22_check_template_paramsEv()
  ret void
}

; Function Attrs: inlinehint mustprogress uwtable
define linkonce_odr void @_ZN5Eigen3MapINS_6MatrixIdLi6ELi6ELi0ELi6ELi6EEELi0ENS_6StrideILi0ELi0EEEEC2EPdllRKS4_(ptr noundef nonnull align 8 dereferenceable(12) %0, ptr noundef %1, i64 noundef %2, i64 noundef %3, ptr noundef nonnull align 1 dereferenceable(2) %4) unnamed_addr #7 comdat align 2 {
  %6 = alloca ptr, align 8
  %7 = alloca ptr, align 8
  %8 = alloca i64, align 8
  %9 = alloca i64, align 8
  %10 = alloca ptr, align 8
  store ptr %0, ptr %6, align 8, !tbaa !660
  store ptr %1, ptr %7, align 8, !tbaa !59
  store i64 %2, ptr %8, align 8, !tbaa !97
  store i64 %3, ptr %9, align 8, !tbaa !97
  store ptr %4, ptr %10, align 8, !tbaa !127
  %11 = load ptr, ptr %6, align 8
  %12 = load ptr, ptr %7, align 8, !tbaa !59
  %13 = call noundef ptr @_ZN5Eigen3MapINS_6MatrixIdLi6ELi6ELi0ELi6ELi6EEELi0ENS_6StrideILi0ELi0EEEE20cast_to_pointer_typeEPd(ptr noundef nonnull align 8 dereferenceable(12) %11, ptr noundef %12)
  %14 = load i64, ptr %8, align 8, !tbaa !97
  %15 = load i64, ptr %9, align 8, !tbaa !97
  call void @_ZN5Eigen7MapBaseINS_3MapINS_6MatrixIdLi6ELi6ELi0ELi6ELi6EEELi0ENS_6StrideILi0ELi0EEEEELi1EEC2EPdll(ptr noundef nonnull align 8 dereferenceable(10) %11, ptr noundef %13, i64 noundef %14, i64 noundef %15)
  %16 = getelementptr inbounds i8, ptr %11, i64 10
  %17 = load ptr, ptr %10, align 8, !tbaa !127
  call void @_ZN5Eigen6StrideILi0ELi0EEC2ERKS1_(ptr noundef nonnull align 1 dereferenceable(2) %16, ptr noundef nonnull align 1 dereferenceable(2) %17)
  call void @_ZN5Eigen15PlainObjectBaseINS_6MatrixIdLi6ELi6ELi0ELi6ELi6EEEE22_check_template_paramsEv()
  ret void
}

; Function Attrs: mustprogress uwtable
define linkonce_odr void @_ZN5Eigen6StrideILi0ELi0EEC2Ev(ptr noundef nonnull align 1 dereferenceable(2) %0) unnamed_addr #3 comdat align 2 {
  %2 = alloca ptr, align 8
  store ptr %0, ptr %2, align 8, !tbaa !127
  %3 = load ptr, ptr %2, align 8
  call void @_ZN5Eigen8internal19variable_if_dynamicIlLi0EEC2El(ptr noundef nonnull align 1 dereferenceable(1) %3, i64 noundef 0)
  %4 = getelementptr inbounds i8, ptr %3, i64 1
  call void @_ZN5Eigen8internal19variable_if_dynamicIlLi0EEC2El(ptr noundef nonnull align 1 dereferenceable(1) %4, i64 noundef 0)
  ret void
}

; Function Attrs: mustprogress uwtable
define linkonce_odr void @_ZN3g2o10BaseVertexILi6ENS_6SBACamEEC2Ev(ptr noundef nonnull align 16 dereferenceable(776) %0) unnamed_addr #3 comdat align 2 personality ptr @__gxx_personality_v0 {
  %2 = alloca ptr, align 8
  %3 = alloca %"class.Eigen::Stride", align 1
  %4 = alloca ptr, align 8
  %5 = alloca i32, align 4
  store ptr %0, ptr %2, align 8, !tbaa !18
  %6 = load ptr, ptr %2, align 8
  call void @_ZN3g2o16OptimizableGraph6VertexC2Ev(ptr noundef nonnull align 8 dereferenceable(128) %6)
  store ptr getelementptr inbounds inrange(-16, 256) ({ [34 x ptr], [4 x ptr] }, ptr @_ZTVN3g2o10BaseVertexILi6ENS_6SBACamEEE, i32 0, i32 0, i32 2), ptr %6, align 16, !tbaa !16
  %7 = getelementptr inbounds i8, ptr %6, i64 64
  store ptr getelementptr inbounds inrange(-16, 16) ({ [34 x ptr], [4 x ptr] }, ptr @_ZTVN3g2o10BaseVertexILi6ENS_6SBACamEEE, i32 0, i32 1, i32 2), ptr %7, align 16, !tbaa !16
  %8 = getelementptr inbounds nuw %"class.g2o::BaseVertex", ptr %6, i32 0, i32 1
  call void @llvm.lifetime.start.p0(i64 2, ptr %3) #6
  invoke void @_ZN5Eigen6StrideILi0ELi0EEC2Ev(ptr noundef nonnull align 1 dereferenceable(2) %3)
          to label %9 unwind label %18

9:                                                ; preds = %1
  invoke void @_ZN5Eigen3MapINS_6MatrixIdLi6ELi6ELi0ELi6ELi6EEELi0ENS_6StrideILi0ELi0EEEEC2EPdllRKS4_(ptr noundef nonnull align 8 dereferenceable(12) %8, ptr noundef null, i64 noundef 6, i64 noundef 6, ptr noundef nonnull align 1 dereferenceable(2) %3)
          to label %10 unwind label %18

10:                                               ; preds = %9
  call void @llvm.lifetime.end.p0(i64 2, ptr %3) #6
  %11 = getelementptr inbounds nuw %"class.g2o::BaseVertex", ptr %6, i32 0, i32 2
  invoke void @_ZN5Eigen6MatrixIdLi6ELi1ELi0ELi6ELi1EEC2Ev(ptr noundef nonnull align 16 dereferenceable(48) %11)
          to label %12 unwind label %22

12:                                               ; preds = %10
  %13 = getelementptr inbounds nuw %"class.g2o::BaseVertex", ptr %6, i32 0, i32 3
  invoke void @_ZN3g2o6SBACamC1Ev(ptr noundef nonnull align 16 dereferenceable(552) %13)
          to label %14 unwind label %22

14:                                               ; preds = %12
  %15 = getelementptr inbounds nuw %"class.g2o::BaseVertex", ptr %6, i32 0, i32 4
  invoke void @_ZNSt5stackIN3g2o6SBACamESt6vectorIS1_SaIS1_EEEC2IS4_vEEv(ptr noundef nonnull align 8 dereferenceable(24) %15)
          to label %16 unwind label %22

16:                                               ; preds = %14
  %17 = getelementptr inbounds nuw %"class.g2o::OptimizableGraph::Vertex", ptr %6, i32 0, i32 7
  store i32 6, ptr %17, align 8, !tbaa !20
  ret void

18:                                               ; preds = %9, %1
  %19 = landingpad { ptr, i32 }
          cleanup
  %20 = extractvalue { ptr, i32 } %19, 0
  store ptr %20, ptr %4, align 8
  %21 = extractvalue { ptr, i32 } %19, 1
  store i32 %21, ptr %5, align 4
  call void @llvm.lifetime.end.p0(i64 2, ptr %3) #6
  br label %26

22:                                               ; preds = %14, %12, %10
  %23 = landingpad { ptr, i32 }
          cleanup
  %24 = extractvalue { ptr, i32 } %23, 0
  store ptr %24, ptr %4, align 8
  %25 = extractvalue { ptr, i32 } %23, 1
  store i32 %25, ptr %5, align 4
  br label %26

26:                                               ; preds = %22, %18
  call void @_ZN3g2o16OptimizableGraph6VertexD2Ev(ptr noundef nonnull align 8 dereferenceable(128) %6) #6
  br label %27

27:                                               ; preds = %26
  %28 = load ptr, ptr %4, align 8
  %29 = load i32, ptr %5, align 4
  %30 = insertvalue { ptr, i32 } poison, ptr %28, 0
  %31 = insertvalue { ptr, i32 } %30, i32 %29, 1
  resume { ptr, i32 } %31
}

; Function Attrs: mustprogress uwtable
define void @_ZN3g2o9VertexCamC2Ev(ptr noundef nonnull align 16 dereferenceable(776) %0) unnamed_addr #3 align 2 {
  %2 = alloca ptr, align 8
  store ptr %0, ptr %2, align 8, !tbaa !14
  %3 = load ptr, ptr %2, align 8
  call void @_ZN3g2o10BaseVertexILi6ENS_6SBACamEEC2Ev(ptr noundef nonnull align 16 dereferenceable(776) %3)
  store ptr getelementptr inbounds inrange(-16, 264) ({ [35 x ptr], [4 x ptr] }, ptr @_ZTVN3g2o9VertexCamE, i32 0, i32 0, i32 2), ptr %3, align 16, !tbaa !16
  %4 = getelementptr inbounds i8, ptr %3, i64 64
  store ptr getelementptr inbounds inrange(-16, 16) ({ [35 x ptr], [4 x ptr] }, ptr @_ZTVN3g2o9VertexCamE, i32 0, i32 1, i32 2), ptr %4, align 16, !tbaa !16
  ret void
}