; Function Attrs: mustprogress uwtable
define void @_ZN3g2o9VertexCamC2Ev(ptr noundef nonnull align 16 dereferenceable(776) %0) unnamed_addr #4 align 2 personality ptr @__gxx_personality_v0 {
  tail call void @_ZN3g2o16OptimizableGraph6VertexC2Ev(ptr noundef nonnull align 16 dereferenceable(776) %0)
  store ptr getelementptr inbounds nuw inrange(-16, 256) (i8, ptr @_ZTVN3g2o10BaseVertexILi6ENS_6SBACamEEE, i64 16), ptr %0, align 16, !tbaa !3
  %2 = getelementptr inbounds nuw i8, ptr %0, i64 64
  store ptr getelementptr inbounds nuw inrange(-16, 16) (i8, ptr @_ZTVN3g2o10BaseVertexILi6ENS_6SBACamEEE, i64 288), ptr %2, align 16, !tbaa !3
  %3 = getelementptr inbounds nuw i8, ptr %0, i64 128
  store ptr null, ptr %3, align 16, !tbaa !6
  %4 = getelementptr inbounds nuw i8, ptr %0, i64 192
  invoke void @_ZN3g2o6SBACamC1Ev(ptr noundef nonnull align 16 dereferenceable(552) %4)
          to label %_ZN3g2o10BaseVertexILi6ENS_6SBACamEEC2Ev.exit unwind label %5

5:                                                ; preds = %1
  %6 = landingpad { ptr, i32 }
          cleanup
  tail call void @_ZN3g2o16OptimizableGraph6VertexD2Ev(ptr noundef nonnull align 16 dereferenceable(776) %0) #23
  resume { ptr, i32 } %6

_ZN3g2o10BaseVertexILi6ENS_6SBACamEEC2Ev.exit:    ; preds = %1
  %7 = getelementptr inbounds nuw i8, ptr %0, i64 752
  tail call void @llvm.memset.p0.i64(ptr noundef nonnull align 16 dereferenceable(24) %7, i8 0, i64 24, i1 false)
  %8 = getelementptr inbounds nuw i8, ptr %0, i64 104
  store i32 6, ptr %8, align 8, !tbaa !12
  store ptr getelementptr inbounds nuw inrange(-16, 264) (i8, ptr @_ZTVN3g2o9VertexCamE, i64 16), ptr %0, align 16, !tbaa !3
  store ptr getelementptr inbounds nuw inrange(-16, 16) (i8, ptr @_ZTVN3g2o9VertexCamE, i64 296), ptr %2, align 16, !tbaa !3
  ret void
}